; Function Attrs: mustprogress nounwind uwtable
define void @_ZN6casadi7QpToNlpD2Ev(ptr noundef nonnull align 8 dereferenceable(1480) %0) unnamed_addr #4 align 2 personality ptr @__gxx_personality_v0 {
  store ptr getelementptr inbounds ({ [118 x ptr], [3 x ptr] }, ptr @_ZTVN6casadi7QpToNlpE, i64 0, i32 0, i64 2), ptr %0, align 8
  %2 = getelementptr inbounds i8, ptr %0, i64 1304
  store ptr getelementptr inbounds ({ [118 x ptr], [3 x ptr] }, ptr @_ZTVN6casadi7QpToNlpE, i64 0, i32 1, i64 2), ptr %2, align 8
  invoke void @_ZN6casadi13ProtoFunction9clear_memEv(ptr noundef nonnull align 8 dereferenceable(168) %0)
          to label %3 unwind label %5

3:                                                ; preds = %1
  %4 = getelementptr inbounds i8, ptr %0, i64 1472
  tail call void @_ZN6casadi8FunctionD1Ev(ptr noundef nonnull align 8 dereferenceable(8) %4) #18
  tail call void @_ZN6casadi5ConicD2Ev(ptr noundef nonnull align 8 dereferenceable(1472) %0) #18
  ret void

5:                                                ; preds = %1
  %6 = landingpad { ptr, i32 }
          catch ptr null
  %7 = extractvalue { ptr, i32 } %6, 0
  tail call void @__clang_call_terminate(ptr %7) #21
  unreachable
}